---
triple:          'arm64-apple-darwin'
binary-path:     '/Users/star/Documents/Aidans CODE/COMSC-210/Lab-32-Toll-Booth/output/main'
relocations:
  - { offsetInCU: 0x3F, offset: 0x3F, size: 0x8, addend: 0x0, symName: _initSIZE, symObjAddr: 0x6798, symBinAddr: 0x10000C000, symSize: 0x0 }
  - { offsetInCU: 0x5B, offset: 0x5B, size: 0x8, addend: 0x0, symName: _timeStep, symObjAddr: 0x335E4, symBinAddr: 0x10000C004, symSize: 0x0 }
  - { offsetInCU: 0x4959, offset: 0x4959, size: 0x8, addend: 0x0, symName: __ZNSt3__124__put_character_sequenceB8ue170006IcNS_11char_traitsIcEEEERNS_13basic_ostreamIT_T0_EES7_PKS4_m, symObjAddr: 0xB28, symBinAddr: 0x100001C4C, symSize: 0x1F4 }
  - { offsetInCU: 0x6B68, offset: 0x6B68, size: 0x8, addend: 0x0, symName: __ZNSt3__1lsB8ue170006INS_11char_traitsIcEEEERNS_13basic_ostreamIcT_EES6_PKc, symObjAddr: 0x4B4, symBinAddr: 0x1000015D8, symSize: 0x48 }
  - { offsetInCU: 0x6BAE, offset: 0x6BAE, size: 0x8, addend: 0x0, symName: __ZNSt3__1neB8ue170006ERKNS_16__deque_iteratorI3CarPS1_RS1_PS2_lLl16EEES7_, symObjAddr: 0x694, symBinAddr: 0x1000017B8, symSize: 0x34 }
  - { offsetInCU: 0x6BEB, offset: 0x6BEB, size: 0x8, addend: 0x0, symName: __ZNSt3__1lsB8ue170006IcNS_11char_traitsIcEENS_9allocatorIcEEEERNS_13basic_ostreamIT_T0_EES9_RKNS_12basic_stringIS6_S7_T1_EE, symObjAddr: 0xADC, symBinAddr: 0x100001C00, symSize: 0x4C }
  - { offsetInCU: 0x6C43, offset: 0x6C43, size: 0x8, addend: 0x0, symName: __ZNSt3__116__pad_and_outputB8ue170006IcNS_11char_traitsIcEEEENS_19ostreambuf_iteratorIT_T0_EES6_PKS4_S8_S8_RNS_8ios_baseES4_, symObjAddr: 0xDB4, symBinAddr: 0x100001ED8, symSize: 0x248 }
  - { offsetInCU: 0x6D12, offset: 0x6D12, size: 0x8, addend: 0x0, symName: __ZNSt3__19use_facetB8ue170006INS_5ctypeIcEEEERKT_RKNS_6localeE, symObjAddr: 0x145C, symBinAddr: 0x100002580, symSize: 0x2C }
  - { offsetInCU: 0x71DF, offset: 0x71DF, size: 0x8, addend: 0x0, symName: __ZNSt3__112__to_addressB8ue170006IKcEEPT_S3_, symObjAddr: 0x14F4, symBinAddr: 0x100002618, symSize: 0x14 }
  - { offsetInCU: 0x7214, offset: 0x7214, size: 0x8, addend: 0x0, symName: __ZNSt3__130__libcpp_is_constant_evaluatedB8ue170006Ev, symObjAddr: 0x1620, symBinAddr: 0x100002744, symSize: 0xC }
  - { offsetInCU: 0x7264, offset: 0x7264, size: 0x8, addend: 0x0, symName: __ZNSt3__117__libcpp_allocateB8ue170006Emm, symObjAddr: 0x1FE0, symBinAddr: 0x100003104, symSize: 0x28 }
  - { offsetInCU: 0x72A1, offset: 0x72A1, size: 0x8, addend: 0x0, symName: __ZNSt3__121__libcpp_operator_newB8ue170006IJmEEEPvDpT_, symObjAddr: 0x201C, symBinAddr: 0x100003140, symSize: 0x24 }
  - { offsetInCU: 0x72DA, offset: 0x72DA, size: 0x8, addend: 0x0, symName: __ZNSt3__118__constexpr_strlenB8ue170006EPKc, symObjAddr: 0x2118, symBinAddr: 0x10000323C, symSize: 0x24 }
  - { offsetInCU: 0x7306, offset: 0x7306, size: 0x8, addend: 0x0, symName: __ZNSt3__112__to_addressB8ue170006I3CarEEPT_S3_, symObjAddr: 0x2C40, symBinAddr: 0x100003D64, symSize: 0x14 }
  - { offsetInCU: 0x733B, offset: 0x733B, size: 0x8, addend: 0x0, symName: __ZNSt3__112__to_addressB8ue170006IP3CarEEPT_S4_, symObjAddr: 0x2F0C, symBinAddr: 0x100004030, symSize: 0x14 }
  - { offsetInCU: 0x7370, offset: 0x7370, size: 0x8, addend: 0x0, symName: __ZNSt3__119__libcpp_deallocateB8ue170006EPvmm, symObjAddr: 0x2FA4, symBinAddr: 0x1000040C8, symSize: 0x30 }
  - { offsetInCU: 0x73B8, offset: 0x73B8, size: 0x8, addend: 0x0, symName: __ZNSt3__127__do_deallocate_handle_sizeB8ue170006IJEEEvPvmDpT_, symObjAddr: 0x2FD4, symBinAddr: 0x1000040F8, symSize: 0x28 }
  - { offsetInCU: 0x73F6, offset: 0x73F6, size: 0x8, addend: 0x0, symName: __ZNSt3__124__libcpp_operator_deleteB8ue170006IJPvEEEvDpT_, symObjAddr: 0x2FFC, symBinAddr: 0x100004120, symSize: 0x24 }
  - { offsetInCU: 0x742B, offset: 0x742B, size: 0x8, addend: 0x0, symName: __ZNSt3__1eqB8ue170006ERKNS_16__deque_iteratorI3CarPS1_RS1_PS2_lLl16EEES7_, symObjAddr: 0x37D8, symBinAddr: 0x1000048FC, symSize: 0x30 }
  - { offsetInCU: 0x7468, offset: 0x7468, size: 0x8, addend: 0x0, symName: __ZNSt3__13maxB8ue170006ImEERKT_S3_S3_, symObjAddr: 0x4628, symBinAddr: 0x10000574C, symSize: 0x2C }
  - { offsetInCU: 0x7934, offset: 0x7934, size: 0x8, addend: 0x0, symName: __ZNSt3__14swapB8ue170006IPP3CarEEvRT_S5_, symObjAddr: 0x4C58, symBinAddr: 0x100005D7C, symSize: 0x3C }
  - { offsetInCU: 0x7985, offset: 0x7985, size: 0x8, addend: 0x0, symName: __ZNSt3__14moveB8ue170006IPP3CarS3_EET0_T_S5_S4_, symObjAddr: 0x4D3C, symBinAddr: 0x100005E60, symSize: 0x40 }
  - { offsetInCU: 0x79FB, offset: 0x79FB, size: 0x8, addend: 0x0, symName: __ZNSt3__16__moveB8ue170006INS_17_ClassicAlgPolicyEPP3CarS4_S4_EENS_4pairIT0_T2_EES6_T1_S7_, symObjAddr: 0x4E44, symBinAddr: 0x100005F68, symSize: 0x44 }
  - { offsetInCU: 0x7A67, offset: 0x7A67, size: 0x8, addend: 0x0, symName: __ZNSt3__123__dispatch_copy_or_moveB8ue170006INS_17_ClassicAlgPolicyENS_11__move_loopIS1_EENS_14__move_trivialEPP3CarS7_S7_EENS_4pairIT2_T4_EES9_T3_SA_, symObjAddr: 0x4E88, symBinAddr: 0x100005FAC, symSize: 0x44 }
  - { offsetInCU: 0x7AE5, offset: 0x7AE5, size: 0x8, addend: 0x0, symName: __ZNSt3__121__unwrap_and_dispatchB8ue170006INS_10__overloadINS_11__move_loopINS_17_ClassicAlgPolicyEEENS_14__move_trivialEEEPP3CarS9_S9_Li0EEENS_4pairIT0_T2_EESB_T1_SC_, symObjAddr: 0x4ECC, symBinAddr: 0x100005FF0, symSize: 0xB4 }
  - { offsetInCU: 0x7B73, offset: 0x7B73, size: 0x8, addend: 0x0, symName: __ZNSt3__114__unwrap_rangeB8ue170006IPP3CarS3_EENS_4pairIT0_S5_EET_S7_, symObjAddr: 0x4F80, symBinAddr: 0x1000060A4, symSize: 0x60 }
  - { offsetInCU: 0x7CB2, offset: 0x7CB2, size: 0x8, addend: 0x0, symName: __ZNSt3__113__unwrap_iterB8ue170006IPP3CarNS_18__unwrap_iter_implIS3_Lb1EEELi0EEEDTclsrT0_8__unwrapclsr3stdE7declvalIT_EEEES7_, symObjAddr: 0x5028, symBinAddr: 0x10000614C, symSize: 0x24 }
  - { offsetInCU: 0x7CF6, offset: 0x7CF6, size: 0x8, addend: 0x0, symName: __ZNSt3__19make_pairB8ue170006IPP3CarS3_EENS_4pairINS_18__unwrap_ref_decayIT_E4typeENS5_IT0_E4typeEEEOS6_OS9_, symObjAddr: 0x504C, symBinAddr: 0x100006170, symSize: 0x38 }
  - { offsetInCU: 0x7D45, offset: 0x7D45, size: 0x8, addend: 0x0, symName: __ZNSt3__114__rewrap_rangeB8ue170006IPP3CarS3_EET_S4_T0_, symObjAddr: 0x5084, symBinAddr: 0x1000061A8, symSize: 0x2C }
  - { offsetInCU: 0x7D91, offset: 0x7D91, size: 0x8, addend: 0x0, symName: __ZNSt3__113__rewrap_iterB8ue170006IPP3CarS3_NS_18__unwrap_iter_implIS3_Lb1EEEEET_S6_T0_, symObjAddr: 0x50B0, symBinAddr: 0x1000061D4, symSize: 0x50 }
  - { offsetInCU: 0x7DE6, offset: 0x7DE6, size: 0x8, addend: 0x0, symName: __ZNSt3__119__copy_trivial_implB8ue170006IP3CarS2_EENS_4pairIPT_PT0_EES5_S5_S7_, symObjAddr: 0x5100, symBinAddr: 0x100006224, symSize: 0x80 }
  - { offsetInCU: 0x7E4E, offset: 0x7E4E, size: 0x8, addend: 0x0, symName: __ZNSt3__119__constexpr_memmoveB8ue170006IP3CarS2_Li0EEEPT_S4_PT0_NS_15__element_countE, symObjAddr: 0x5180, symBinAddr: 0x1000062A4, symSize: 0xA0 }
  - { offsetInCU: 0x7EBC, offset: 0x7EBC, size: 0x8, addend: 0x0, symName: __ZNSt3__19make_pairB8ue170006IRPP3CarS3_EENS_4pairINS_18__unwrap_ref_decayIT_E4typeENS6_IT0_E4typeEEEOS7_OSA_, symObjAddr: 0x5220, symBinAddr: 0x100006344, symSize: 0x38 }
  - { offsetInCU: 0x7F5E, offset: 0x7F5E, size: 0x8, addend: 0x0, symName: __ZNSt3__18distanceB8ue170006INS_13move_iteratorIPP3CarEEEENS_15iterator_traitsIT_E15difference_typeES7_S7_, symObjAddr: 0x5420, symBinAddr: 0x100006544, symSize: 0x3C }
  - { offsetInCU: 0x7FA1, offset: 0x7FA1, size: 0x8, addend: 0x0, symName: __ZNSt3__110__distanceB8ue170006INS_13move_iteratorIPP3CarEEEENS_15iterator_traitsIT_E15difference_typeES7_S7_NS_26random_access_iterator_tagE, symObjAddr: 0x5624, symBinAddr: 0x100006748, symSize: 0x30 }
  - { offsetInCU: 0x7FEE, offset: 0x7FEE, size: 0x8, addend: 0x0, symName: __ZNSt3__1miB8ue170006IPP3CarS3_EENS_13move_iteratorIT_E15difference_typeERKS6_RKNS4_IT0_EE, symObjAddr: 0x5654, symBinAddr: 0x100006778, symSize: 0x48 }
  - { offsetInCU: 0x803D, offset: 0x803D, size: 0x8, addend: 0x0, symName: __ZNSt3__113move_backwardB8ue170006IPP3CarS3_EET0_T_S5_S4_, symObjAddr: 0x57CC, symBinAddr: 0x1000068F0, symSize: 0x40 }
  - { offsetInCU: 0x8097, offset: 0x8097, size: 0x8, addend: 0x0, symName: __ZNSt3__115__move_backwardB8ue170006INS_17_ClassicAlgPolicyEPP3CarS4_S4_EENS_4pairIT0_T2_EES6_T1_S7_, symObjAddr: 0x580C, symBinAddr: 0x100006930, symSize: 0x44 }
  - { offsetInCU: 0x8103, offset: 0x8103, size: 0x8, addend: 0x0, symName: __ZNSt3__123__dispatch_copy_or_moveB8ue170006INS_17_ClassicAlgPolicyENS_20__move_backward_loopIS1_EENS_23__move_backward_trivialEPP3CarS7_S7_EENS_4pairIT2_T4_EES9_T3_SA_, symObjAddr: 0x5850, symBinAddr: 0x100006974, symSize: 0x44 }
  - { offsetInCU: 0x8181, offset: 0x8181, size: 0x8, addend: 0x0, symName: __ZNSt3__121__unwrap_and_dispatchB8ue170006INS_10__overloadINS_20__move_backward_loopINS_17_ClassicAlgPolicyEEENS_23__move_backward_trivialEEEPP3CarS9_S9_Li0EEENS_4pairIT0_T2_EESB_T1_SC_, symObjAddr: 0x5894, symBinAddr: 0x1000069B8, symSize: 0xB4 }
  - { offsetInCU: 0x8255, offset: 0x8255, size: 0x8, addend: 0x0, symName: __ZNSt3__128__copy_backward_trivial_implB8ue170006IP3CarS2_EENS_4pairIPT_PT0_EES5_S5_S7_, symObjAddr: 0x5990, symBinAddr: 0x100006AB4, symSize: 0x90 }
  - { offsetInCU: 0x82BD, offset: 0x82BD, size: 0x8, addend: 0x0, symName: __ZNSt3__19make_pairB8ue170006IRPP3CarS4_EENS_4pairINS_18__unwrap_ref_decayIT_E4typeENS6_IT0_E4typeEEEOS7_OSA_, symObjAddr: 0x5A20, symBinAddr: 0x100006B44, symSize: 0x38 }
  - { offsetInCU: 0x830C, offset: 0x830C, size: 0x8, addend: 0x0, symName: __ZNSt3__13maxB8ue170006ImNS_6__lessIvvEEEERKT_S5_S5_T0_, symObjAddr: 0x5A58, symBinAddr: 0x100006B7C, symSize: 0x54 }
  - { offsetInCU: 0x83AB, offset: 0x83AB, size: 0x8, addend: 0x0, symName: __ZNSt3__119__allocate_at_leastB8ue170006INS_9allocatorIP3CarEEEENS_19__allocation_resultINS_16allocator_traitsIT_E7pointerEEERS7_m, symObjAddr: 0x5BF0, symBinAddr: 0x100006D14, symSize: 0x40 }
  - { offsetInCU: 0x84FF, offset: 0x84FF, size: 0x8, addend: 0x0, symName: __ZSt28__throw_bad_array_new_lengthB8ue170006v, symObjAddr: 0x1FAC, symBinAddr: 0x1000030D0, symSize: 0x34 }
  - { offsetInCU: 0xAED1, offset: 0xAED1, size: 0x8, addend: 0x0, symName: _main, symObjAddr: 0x0, symBinAddr: 0x100001124, symSize: 0x3CC }
  - { offsetInCU: 0xAFBE, offset: 0xAFBE, size: 0x8, addend: 0x0, symName: __ZNSt3__15dequeI3CarNS_9allocatorIS1_EEEC1B8ue170006Ev, symObjAddr: 0x3CC, symBinAddr: 0x1000014F0, symSize: 0x2C }
  - { offsetInCU: 0xAFE8, offset: 0xAFE8, size: 0x8, addend: 0x0, symName: __Z8popDequeRNSt3__15dequeI3CarNS_9allocatorIS1_EEEE, symObjAddr: 0x3F8, symBinAddr: 0x10000151C, symSize: 0xBC }
  - { offsetInCU: 0xB025, offset: 0xB025, size: 0x8, addend: 0x0, symName: __ZNSt3__15dequeI3CarNS_9allocatorIS1_EEE5beginB8ue170006Ev, symObjAddr: 0x4FC, symBinAddr: 0x100001620, symSize: 0xD4 }
  - { offsetInCU: 0xB05A, offset: 0xB05A, size: 0x8, addend: 0x0, symName: __ZNSt3__15dequeI3CarNS_9allocatorIS1_EEE3endB8ue170006Ev, symObjAddr: 0x5D0, symBinAddr: 0x1000016F4, symSize: 0xC4 }
  - { offsetInCU: 0xB09E, offset: 0xB09E, size: 0x8, addend: 0x0, symName: __ZNKSt3__116__deque_iteratorI3CarPS1_RS1_PS2_lLl16EEdeB8ue170006Ev, symObjAddr: 0x6C8, symBinAddr: 0x1000017EC, symSize: 0x18 }
  - { offsetInCU: 0xB0C4, offset: 0xB0C4, size: 0x8, addend: 0x0, symName: __ZN3Car5printEv, symObjAddr: 0x6E0, symBinAddr: 0x100001804, symSize: 0x7C }
  - { offsetInCU: 0xB0EA, offset: 0xB0EA, size: 0x8, addend: 0x0, symName: __ZNSt3__116__deque_iteratorI3CarPS1_RS1_PS2_lLl16EEppB8ue170006Ev, symObjAddr: 0x75C, symBinAddr: 0x100001880, symSize: 0x70 }
  - { offsetInCU: 0xB110, offset: 0xB110, size: 0x8, addend: 0x0, symName: __ZNKSt3__15dequeI3CarNS_9allocatorIS1_EEE5emptyB8ue170006Ev, symObjAddr: 0x7CC, symBinAddr: 0x1000018F0, symSize: 0x30 }
  - { offsetInCU: 0xB136, offset: 0xB136, size: 0x8, addend: 0x0, symName: __ZNSt3__15dequeI3CarNS_9allocatorIS1_EEE5frontEv, symObjAddr: 0x7FC, symBinAddr: 0x100001920, symSize: 0x58 }
  - { offsetInCU: 0xB15E, offset: 0xB15E, size: 0x8, addend: 0x0, symName: __ZNSt3__15dequeI3CarNS_9allocatorIS1_EEE9pop_frontEv, symObjAddr: 0x854, symBinAddr: 0x100001978, symSize: 0xDC }
  - { offsetInCU: 0xB1B3, offset: 0xB1B3, size: 0x8, addend: 0x0, symName: __ZNSt3__15dequeI3CarNS_9allocatorIS1_EEE9push_backERKS1_, symObjAddr: 0x930, symBinAddr: 0x100001A54, symSize: 0xAC }
  - { offsetInCU: 0xB1F9, offset: 0xB1F9, size: 0x8, addend: 0x0, symName: __ZN3CarC1Ev, symObjAddr: 0x9DC, symBinAddr: 0x100001B00, symSize: 0x2C }
  - { offsetInCU: 0xB223, offset: 0xB223, size: 0x8, addend: 0x0, symName: __ZN3CarD1Ev, symObjAddr: 0xA08, symBinAddr: 0x100001B2C, symSize: 0x2C }
  - { offsetInCU: 0xB24F, offset: 0xB24F, size: 0x8, addend: 0x0, symName: __ZNSt3__15dequeI3CarNS_9allocatorIS1_EEE4backEv, symObjAddr: 0xA40, symBinAddr: 0x100001B64, symSize: 0x70 }
  - { offsetInCU: 0xB286, offset: 0xB286, size: 0x8, addend: 0x0, symName: __ZNSt3__15dequeI3CarNS_9allocatorIS1_EEED1B8ue170006Ev, symObjAddr: 0xAB0, symBinAddr: 0x100001BD4, symSize: 0x2C }
  - { offsetInCU: 0xB2B0, offset: 0xB2B0, size: 0x8, addend: 0x0, symName: __ZNKSt3__112basic_stringIcNS_11char_traitsIcEENS_9allocatorIcEEE4dataB8ue170006Ev, symObjAddr: 0xD1C, symBinAddr: 0x100001E40, symSize: 0x28 }
  - { offsetInCU: 0xB2D6, offset: 0xB2D6, size: 0x8, addend: 0x0, symName: __ZNKSt3__112basic_stringIcNS_11char_traitsIcEENS_9allocatorIcEEE4sizeB8ue170006Ev, symObjAddr: 0xD44, symBinAddr: 0x100001E68, symSize: 0x54 }
  - { offsetInCU: 0xB31A, offset: 0xB31A, size: 0x8, addend: 0x0, symName: __ZNKSt3__113basic_ostreamIcNS_11char_traitsIcEEE6sentrycvbB8ue170006Ev, symObjAddr: 0xD98, symBinAddr: 0x100001EBC, symSize: 0x1C }
  - { offsetInCU: 0xB340, offset: 0xB340, size: 0x8, addend: 0x0, symName: __ZNSt3__119ostreambuf_iteratorIcNS_11char_traitsIcEEEC1B8ue170006ERNS_13basic_ostreamIcS2_EE, symObjAddr: 0xFFC, symBinAddr: 0x100002120, symSize: 0x34 }
  - { offsetInCU: 0xB378, offset: 0xB378, size: 0x8, addend: 0x0, symName: __ZNKSt3__18ios_base5flagsB8ue170006Ev, symObjAddr: 0x1030, symBinAddr: 0x100002154, symSize: 0x18 }
  - { offsetInCU: 0xB3A0, offset: 0xB3A0, size: 0x8, addend: 0x0, symName: __ZNKSt3__19basic_iosIcNS_11char_traitsIcEEE4fillB8ue170006Ev, symObjAddr: 0x1048, symBinAddr: 0x10000216C, symSize: 0x64 }
  - { offsetInCU: 0xB3C8, offset: 0xB3C8, size: 0x8, addend: 0x0, symName: __ZNKSt3__119ostreambuf_iteratorIcNS_11char_traitsIcEEE6failedB8ue170006Ev, symObjAddr: 0x10AC, symBinAddr: 0x1000021D0, symSize: 0x24 }
  - { offsetInCU: 0xB3EE, offset: 0xB3EE, size: 0x8, addend: 0x0, symName: __ZNSt3__19basic_iosIcNS_11char_traitsIcEEE8setstateB8ue170006Ej, symObjAddr: 0x10D0, symBinAddr: 0x1000021F4, symSize: 0x2C }
  - { offsetInCU: 0xB423, offset: 0xB423, size: 0x8, addend: 0x0, symName: __ZNKSt3__18ios_base5widthB8ue170006Ev, symObjAddr: 0x10FC, symBinAddr: 0x100002220, symSize: 0x18 }
  - { offsetInCU: 0xB44B, offset: 0xB44B, size: 0x8, addend: 0x0, symName: __ZNSt3__115basic_streambufIcNS_11char_traitsIcEEE5sputnB8ue170006EPKcl, symObjAddr: 0x1114, symBinAddr: 0x100002238, symSize: 0x3C }
  - { offsetInCU: 0xB48D, offset: 0xB48D, size: 0x8, addend: 0x0, symName: __ZNSt3__112basic_stringIcNS_11char_traitsIcEENS_9allocatorIcEEEC1B8ue170006Emc, symObjAddr: 0x1150, symBinAddr: 0x100002274, symSize: 0x3C }
  - { offsetInCU: 0xB4D5, offset: 0xB4D5, size: 0x8, addend: 0x0, symName: __ZNSt3__18ios_base5widthB8ue170006El, symObjAddr: 0x118C, symBinAddr: 0x1000022B0, symSize: 0x2C }
  - { offsetInCU: 0xB51B, offset: 0xB51B, size: 0x8, addend: 0x0, symName: __ZNSt3__112basic_stringIcNS_11char_traitsIcEENS_9allocatorIcEEEC2B8ue170006Emc, symObjAddr: 0x11B8, symBinAddr: 0x1000022DC, symSize: 0x4C }
  - { offsetInCU: 0xB568, offset: 0xB568, size: 0x8, addend: 0x0, symName: __ZNSt3__117__compressed_pairINS_12basic_stringIcNS_11char_traitsIcEENS_9allocatorIcEEE5__repES5_EC1B8ue170006INS_18__default_init_tagESA_EEOT_OT0_, symObjAddr: 0x1204, symBinAddr: 0x100002328, symSize: 0x3C }
  - { offsetInCU: 0xB5C0, offset: 0xB5C0, size: 0x8, addend: 0x0, symName: __ZNSt3__117__compressed_pairINS_12basic_stringIcNS_11char_traitsIcEENS_9allocatorIcEEE5__repES5_EC2B8ue170006INS_18__default_init_tagESA_EEOT_OT0_, symObjAddr: 0x1240, symBinAddr: 0x100002364, symSize: 0x3C }
  - { offsetInCU: 0xB618, offset: 0xB618, size: 0x8, addend: 0x0, symName: __ZNSt3__122__compressed_pair_elemINS_12basic_stringIcNS_11char_traitsIcEENS_9allocatorIcEEE5__repELi0ELb0EEC2B8ue170006ENS_18__default_init_tagE, symObjAddr: 0x127C, symBinAddr: 0x1000023A0, symSize: 0x14 }
  - { offsetInCU: 0xB64C, offset: 0xB64C, size: 0x8, addend: 0x0, symName: __ZNSt3__122__compressed_pair_elemINS_9allocatorIcEELi1ELb1EEC2B8ue170006ENS_18__default_init_tagE, symObjAddr: 0x1290, symBinAddr: 0x1000023B4, symSize: 0x2C }
  - { offsetInCU: 0xB680, offset: 0xB680, size: 0x8, addend: 0x0, symName: __ZNSt3__19allocatorIcEC2B8ue170006Ev, symObjAddr: 0x12BC, symBinAddr: 0x1000023E0, symSize: 0x2C }
  - { offsetInCU: 0xB6AA, offset: 0xB6AA, size: 0x8, addend: 0x0, symName: __ZNSt3__116__non_trivial_ifILb1ENS_9allocatorIcEEEC2B8ue170006Ev, symObjAddr: 0x12E8, symBinAddr: 0x10000240C, symSize: 0x14 }
  - { offsetInCU: 0xB6D4, offset: 0xB6D4, size: 0x8, addend: 0x0, symName: __ZNSt3__119ostreambuf_iteratorIcNS_11char_traitsIcEEEC2B8ue170006ERNS_13basic_ostreamIcS2_EE, symObjAddr: 0x12FC, symBinAddr: 0x100002420, symSize: 0x68 }
  - { offsetInCU: 0xB70C, offset: 0xB70C, size: 0x8, addend: 0x0, symName: __ZNKSt3__19basic_iosIcNS_11char_traitsIcEEE5rdbufB8ue170006Ev, symObjAddr: 0x1364, symBinAddr: 0x100002488, symSize: 0x24 }
  - { offsetInCU: 0xB734, offset: 0xB734, size: 0x8, addend: 0x0, symName: __ZNKSt3__18ios_base5rdbufB8ue170006Ev, symObjAddr: 0x1388, symBinAddr: 0x1000024AC, symSize: 0x18 }
  - { offsetInCU: 0xB75A, offset: 0xB75A, size: 0x8, addend: 0x0, symName: __ZNSt3__111char_traitsIcE11eq_int_typeB8ue170006Eii, symObjAddr: 0x13A0, symBinAddr: 0x1000024C4, symSize: 0x28 }
  - { offsetInCU: 0xB78D, offset: 0xB78D, size: 0x8, addend: 0x0, symName: __ZNSt3__111char_traitsIcE3eofB8ue170006Ev, symObjAddr: 0x13C8, symBinAddr: 0x1000024EC, symSize: 0x8 }
  - { offsetInCU: 0xB7A1, offset: 0xB7A1, size: 0x8, addend: 0x0, symName: __ZNKSt3__19basic_iosIcNS_11char_traitsIcEEE5widenB8ue170006Ec, symObjAddr: 0x13D0, symBinAddr: 0x1000024F4, symSize: 0x8C }
  - { offsetInCU: 0xB80A, offset: 0xB80A, size: 0x8, addend: 0x0, symName: __ZNKSt3__15ctypeIcE5widenB8ue170006Ec, symObjAddr: 0x1488, symBinAddr: 0x1000025AC, symSize: 0x38 }
  - { offsetInCU: 0xB83F, offset: 0xB83F, size: 0x8, addend: 0x0, symName: __ZNSt3__18ios_base8setstateB8ue170006Ej, symObjAddr: 0x14C0, symBinAddr: 0x1000025E4, symSize: 0x34 }
  - { offsetInCU: 0xB876, offset: 0xB876, size: 0x8, addend: 0x0, symName: __ZNKSt3__112basic_stringIcNS_11char_traitsIcEENS_9allocatorIcEEE13__get_pointerB8ue170006Ev, symObjAddr: 0x1508, symBinAddr: 0x10000262C, symSize: 0x54 }
  - { offsetInCU: 0xB89C, offset: 0xB89C, size: 0x8, addend: 0x0, symName: __ZNKSt3__112basic_stringIcNS_11char_traitsIcEENS_9allocatorIcEEE9__is_longB8ue170006Ev, symObjAddr: 0x155C, symBinAddr: 0x100002680, symSize: 0x74 }
  - { offsetInCU: 0xB8C2, offset: 0xB8C2, size: 0x8, addend: 0x0, symName: __ZNKSt3__112basic_stringIcNS_11char_traitsIcEENS_9allocatorIcEEE18__get_long_pointerB8ue170006Ev, symObjAddr: 0x15D0, symBinAddr: 0x1000026F4, symSize: 0x28 }
  - { offsetInCU: 0xB8E8, offset: 0xB8E8, size: 0x8, addend: 0x0, symName: __ZNKSt3__112basic_stringIcNS_11char_traitsIcEENS_9allocatorIcEEE19__get_short_pointerB8ue170006Ev, symObjAddr: 0x15F8, symBinAddr: 0x10000271C, symSize: 0x28 }
  - { offsetInCU: 0xB90E, offset: 0xB90E, size: 0x8, addend: 0x0, symName: __ZNKSt3__117__compressed_pairINS_12basic_stringIcNS_11char_traitsIcEENS_9allocatorIcEEE5__repES5_E5firstB8ue170006Ev, symObjAddr: 0x162C, symBinAddr: 0x100002750, symSize: 0x24 }
  - { offsetInCU: 0xB934, offset: 0xB934, size: 0x8, addend: 0x0, symName: __ZNKSt3__122__compressed_pair_elemINS_12basic_stringIcNS_11char_traitsIcEENS_9allocatorIcEEE5__repELi0ELb0EE5__getB8ue170006Ev, symObjAddr: 0x1650, symBinAddr: 0x100002774, symSize: 0x14 }
  - { offsetInCU: 0xB95A, offset: 0xB95A, size: 0x8, addend: 0x0, symName: __ZNSt3__114pointer_traitsIPKcE10pointer_toB8ue170006ERS1_, symObjAddr: 0x1664, symBinAddr: 0x100002788, symSize: 0x14 }
  - { offsetInCU: 0xB97D, offset: 0xB97D, size: 0x8, addend: 0x0, symName: __ZNKSt3__112basic_stringIcNS_11char_traitsIcEENS_9allocatorIcEEE15__get_long_sizeB8ue170006Ev, symObjAddr: 0x1678, symBinAddr: 0x10000279C, symSize: 0x28 }
  - { offsetInCU: 0xB9A3, offset: 0xB9A3, size: 0x8, addend: 0x0, symName: __ZNKSt3__112basic_stringIcNS_11char_traitsIcEENS_9allocatorIcEEE16__get_short_sizeB8ue170006Ev, symObjAddr: 0x16A0, symBinAddr: 0x1000027C4, symSize: 0x34 }
  - { offsetInCU: 0xB9C9, offset: 0xB9C9, size: 0x8, addend: 0x0, symName: __ZN3CarC2Ev, symObjAddr: 0x16D4, symBinAddr: 0x1000027F8, symSize: 0x4B0 }
  - { offsetInCU: 0xB9F3, offset: 0xB9F3, size: 0x8, addend: 0x0, symName: __ZNSt3__112basic_stringIcNS_11char_traitsIcEENS_9allocatorIcEEEC1B8ue170006Ev, symObjAddr: 0x1B84, symBinAddr: 0x100002CA8, symSize: 0x2C }
  - { offsetInCU: 0xBA22, offset: 0xBA22, size: 0x8, addend: 0x0, symName: __ZNSt3__112basic_stringIcNS_11char_traitsIcEENS_9allocatorIcEEEC1B8ue170006ILi0EEEPKc, symObjAddr: 0x1BB0, symBinAddr: 0x100002CD4, symSize: 0x34 }
  - { offsetInCU: 0xBA61, offset: 0xBA61, size: 0x8, addend: 0x0, symName: __ZNSt3__112basic_stringIcNS_11char_traitsIcEENS_9allocatorIcEEEC2B8ue170006Ev, symObjAddr: 0x1BE4, symBinAddr: 0x100002D08, symSize: 0x3C }
  - { offsetInCU: 0xBA8B, offset: 0xBA8B, size: 0x8, addend: 0x0, symName: __ZNSt3__112basic_stringIcNS_11char_traitsIcEENS_9allocatorIcEEE14__default_initB8ue170006Ev, symObjAddr: 0x1C20, symBinAddr: 0x100002D44, symSize: 0xB0 }
  - { offsetInCU: 0xBADE, offset: 0xBADE, size: 0x8, addend: 0x0, symName: __ZNSt3__117__compressed_pairINS_12basic_stringIcNS_11char_traitsIcEENS_9allocatorIcEEE5__repES5_E5firstB8ue170006Ev, symObjAddr: 0x1CD0, symBinAddr: 0x100002DF4, symSize: 0x24 }
  - { offsetInCU: 0xBB04, offset: 0xBB04, size: 0x8, addend: 0x0, symName: __ZNSt3__112basic_stringIcNS_11char_traitsIcEENS_9allocatorIcEEE11__recommendB8ue170006Em, symObjAddr: 0x1CF4, symBinAddr: 0x100002E18, symSize: 0x9C }
  - { offsetInCU: 0xBB37, offset: 0xBB37, size: 0x8, addend: 0x0, symName: __ZNSt3__116allocator_traitsINS_9allocatorIcEEE8allocateB8ue170006ERS2_m, symObjAddr: 0x1D90, symBinAddr: 0x100002EB4, symSize: 0x2C }
  - { offsetInCU: 0xBB6A, offset: 0xBB6A, size: 0x8, addend: 0x0, symName: __ZNSt3__112basic_stringIcNS_11char_traitsIcEENS_9allocatorIcEEE7__allocB8ue170006Ev, symObjAddr: 0x1DBC, symBinAddr: 0x100002EE0, symSize: 0x24 }
  - { offsetInCU: 0xBB90, offset: 0xBB90, size: 0x8, addend: 0x0, symName: __ZNSt3__112basic_stringIcNS_11char_traitsIcEENS_9allocatorIcEEE16__begin_lifetimeB8ue170006EPcm, symObjAddr: 0x1DE0, symBinAddr: 0x100002F04, symSize: 0x14 }
  - { offsetInCU: 0xBBC3, offset: 0xBBC3, size: 0x8, addend: 0x0, symName: __ZNSt3__112basic_stringIcNS_11char_traitsIcEENS_9allocatorIcEEE18__set_long_pointerB8ue170006EPc, symObjAddr: 0x1DF4, symBinAddr: 0x100002F18, symSize: 0x38 }
  - { offsetInCU: 0xBBF8, offset: 0xBBF8, size: 0x8, addend: 0x0, symName: __ZNSt3__112basic_stringIcNS_11char_traitsIcEENS_9allocatorIcEEE14__set_long_capB8ue170006Em, symObjAddr: 0x1E2C, symBinAddr: 0x100002F50, symSize: 0x70 }
  - { offsetInCU: 0xBC2D, offset: 0xBC2D, size: 0x8, addend: 0x0, symName: __ZNSt3__112basic_stringIcNS_11char_traitsIcEENS_9allocatorIcEEE15__set_long_sizeB8ue170006Em, symObjAddr: 0x1E9C, symBinAddr: 0x100002FC0, symSize: 0x38 }
  - { offsetInCU: 0xBC62, offset: 0xBC62, size: 0x8, addend: 0x0, symName: __ZNSt3__122__compressed_pair_elemINS_12basic_stringIcNS_11char_traitsIcEENS_9allocatorIcEEE5__repELi0ELb0EE5__getB8ue170006Ev, symObjAddr: 0x1ED4, symBinAddr: 0x100002FF8, symSize: 0x14 }
  - { offsetInCU: 0xBC88, offset: 0xBC88, size: 0x8, addend: 0x0, symName: __ZNSt3__112basic_stringIcNS_11char_traitsIcEENS_9allocatorIcEEE10__align_itB8ue170006ILm16EEEmm, symObjAddr: 0x1EE8, symBinAddr: 0x10000300C, symSize: 0x1C }
  - { offsetInCU: 0xBCB6, offset: 0xBCB6, size: 0x8, addend: 0x0, symName: __ZNSt3__19allocatorIcE8allocateB8ue170006Em, symObjAddr: 0x1F04, symBinAddr: 0x100003028, symSize: 0x84 }
  - { offsetInCU: 0xBCF4, offset: 0xBCF4, size: 0x8, addend: 0x0, symName: __ZNSt3__116allocator_traitsINS_9allocatorIcEEE8max_sizeB8ue170006IS2_vEEmRKS2_, symObjAddr: 0x1F88, symBinAddr: 0x1000030AC, symSize: 0x24 }
  - { offsetInCU: 0xBD22, offset: 0xBD22, size: 0x8, addend: 0x0, symName: __ZNKSt3__19allocatorIcE8max_sizeB8ue170006Ev, symObjAddr: 0x2008, symBinAddr: 0x10000312C, symSize: 0x14 }
  - { offsetInCU: 0xBD48, offset: 0xBD48, size: 0x8, addend: 0x0, symName: __ZNSt3__117__compressed_pairINS_12basic_stringIcNS_11char_traitsIcEENS_9allocatorIcEEE5__repES5_E6secondB8ue170006Ev, symObjAddr: 0x2040, symBinAddr: 0x100003164, symSize: 0x24 }
  - { offsetInCU: 0xBD6E, offset: 0xBD6E, size: 0x8, addend: 0x0, symName: __ZNSt3__122__compressed_pair_elemINS_9allocatorIcEELi1ELb1EE5__getB8ue170006Ev, symObjAddr: 0x2064, symBinAddr: 0x100003188, symSize: 0x14 }
  - { offsetInCU: 0xBD94, offset: 0xBD94, size: 0x8, addend: 0x0, symName: __ZNSt3__112basic_stringIcNS_11char_traitsIcEENS_9allocatorIcEEEC2B8ue170006ILi0EEEPKc, symObjAddr: 0x2078, symBinAddr: 0x10000319C, symSize: 0x58 }
  - { offsetInCU: 0xBDD3, offset: 0xBDD3, size: 0x8, addend: 0x0, symName: __ZNSt3__111char_traitsIcE6lengthB8ue170006EPKc, symObjAddr: 0x20D0, symBinAddr: 0x1000031F4, symSize: 0x48 }
  - { offsetInCU: 0xBDF6, offset: 0xBDF6, size: 0x8, addend: 0x0, symName: __ZN3CarD2Ev, symObjAddr: 0x213C, symBinAddr: 0x100003260, symSize: 0xF0 }
  - { offsetInCU: 0xBE22, offset: 0xBE22, size: 0x8, addend: 0x0, symName: __ZNSt3__15dequeI3CarNS_9allocatorIS1_EEEC2B8ue170006Ev, symObjAddr: 0x222C, symBinAddr: 0x100003350, symSize: 0x84 }
  - { offsetInCU: 0xBE4C, offset: 0xBE4C, size: 0x8, addend: 0x0, symName: __ZNSt3__114__split_bufferIP3CarNS_9allocatorIS2_EEEC1B8ue170006Ev, symObjAddr: 0x22B0, symBinAddr: 0x1000033D4, symSize: 0x2C }
  - { offsetInCU: 0xBE7B, offset: 0xBE7B, size: 0x8, addend: 0x0, symName: __ZNSt3__117__compressed_pairImNS_9allocatorI3CarEEEC1B8ue170006IiNS_18__default_init_tagEEEOT_OT0_, symObjAddr: 0x22DC, symBinAddr: 0x100003400, symSize: 0x3C }
  - { offsetInCU: 0xBED3, offset: 0xBED3, size: 0x8, addend: 0x0, symName: __ZNKSt3__15dequeI3CarNS_9allocatorIS1_EEE14__annotate_newB8ue170006Em, symObjAddr: 0x2318, symBinAddr: 0x10000343C, symSize: 0xDC }
  - { offsetInCU: 0xBF08, offset: 0xBF08, size: 0x8, addend: 0x0, symName: __ZNSt3__114__split_bufferIP3CarNS_9allocatorIS2_EEED1Ev, symObjAddr: 0x23F4, symBinAddr: 0x100003518, symSize: 0x2C }
  - { offsetInCU: 0xBF34, offset: 0xBF34, size: 0x8, addend: 0x0, symName: __ZNSt3__114__split_bufferIP3CarNS_9allocatorIS2_EEEC2B8ue170006Ev, symObjAddr: 0x2420, symBinAddr: 0x100003544, symSize: 0x48 }
  - { offsetInCU: 0xBF63, offset: 0xBF63, size: 0x8, addend: 0x0, symName: __ZNSt3__117__compressed_pairIPP3CarNS_9allocatorIS2_EEEC1B8ue170006IDnNS_18__default_init_tagEEEOT_OT0_, symObjAddr: 0x2468, symBinAddr: 0x10000358C, symSize: 0x3C }
  - { offsetInCU: 0xBFBB, offset: 0xBFBB, size: 0x8, addend: 0x0, symName: __ZNSt3__117__compressed_pairIPP3CarNS_9allocatorIS2_EEEC2B8ue170006IDnNS_18__default_init_tagEEEOT_OT0_, symObjAddr: 0x24A4, symBinAddr: 0x1000035C8, symSize: 0x40 }
  - { offsetInCU: 0xC013, offset: 0xC013, size: 0x8, addend: 0x0, symName: __ZNSt3__122__compressed_pair_elemIPP3CarLi0ELb0EEC2B8ue170006IDnvEEOT_, symObjAddr: 0x24E4, symBinAddr: 0x100003608, symSize: 0x1C }
  - { offsetInCU: 0xC055, offset: 0xC055, size: 0x8, addend: 0x0, symName: __ZNSt3__122__compressed_pair_elemINS_9allocatorIP3CarEELi1ELb1EEC2B8ue170006ENS_18__default_init_tagE, symObjAddr: 0x2500, symBinAddr: 0x100003624, symSize: 0x2C }
  - { offsetInCU: 0xC089, offset: 0xC089, size: 0x8, addend: 0x0, symName: __ZNSt3__19allocatorIP3CarEC2B8ue170006Ev, symObjAddr: 0x252C, symBinAddr: 0x100003650, symSize: 0x2C }
  - { offsetInCU: 0xC0B3, offset: 0xC0B3, size: 0x8, addend: 0x0, symName: __ZNSt3__116__non_trivial_ifILb1ENS_9allocatorIP3CarEEEC2B8ue170006Ev, symObjAddr: 0x2558, symBinAddr: 0x10000367C, symSize: 0x14 }
  - { offsetInCU: 0xC0DD, offset: 0xC0DD, size: 0x8, addend: 0x0, symName: __ZNSt3__117__compressed_pairImNS_9allocatorI3CarEEEC2B8ue170006IiNS_18__default_init_tagEEEOT_OT0_, symObjAddr: 0x256C, symBinAddr: 0x100003690, symSize: 0x40 }
  - { offsetInCU: 0xC135, offset: 0xC135, size: 0x8, addend: 0x0, symName: __ZNSt3__122__compressed_pair_elemImLi0ELb0EEC2B8ue170006IivEEOT_, symObjAddr: 0x25AC, symBinAddr: 0x1000036D0, symSize: 0x24 }
  - { offsetInCU: 0xC177, offset: 0xC177, size: 0x8, addend: 0x0, symName: __ZNSt3__122__compressed_pair_elemINS_9allocatorI3CarEELi1ELb1EEC2B8ue170006ENS_18__default_init_tagE, symObjAddr: 0x25D0, symBinAddr: 0x1000036F4, symSize: 0x2C }
  - { offsetInCU: 0xC1AB, offset: 0xC1AB, size: 0x8, addend: 0x0, symName: __ZNSt3__19allocatorI3CarEC2B8ue170006Ev, symObjAddr: 0x25FC, symBinAddr: 0x100003720, symSize: 0x2C }
  - { offsetInCU: 0xC1D5, offset: 0xC1D5, size: 0x8, addend: 0x0, symName: __ZNSt3__116__non_trivial_ifILb1ENS_9allocatorI3CarEEEC2B8ue170006Ev, symObjAddr: 0x2628, symBinAddr: 0x10000374C, symSize: 0x14 }
  - { offsetInCU: 0xC1FF, offset: 0xC1FF, size: 0x8, addend: 0x0, symName: __ZNKSt3__15dequeI3CarNS_9allocatorIS1_EEE18__annotate_from_toB8ue170006EmmNS4_22__asan_annotation_typeENS4_23__asan_annotation_placeE, symObjAddr: 0x263C, symBinAddr: 0x100003760, symSize: 0x59C }
  - { offsetInCU: 0xC3BD, offset: 0xC3BD, size: 0x8, addend: 0x0, symName: __ZNKSt3__114__split_bufferIP3CarNS_9allocatorIS2_EEE4sizeB8ue170006Ev, symObjAddr: 0x2BD8, symBinAddr: 0x100003CFC, symSize: 0x28 }
  - { offsetInCU: 0xC3E3, offset: 0xC3E3, size: 0x8, addend: 0x0, symName: __ZNKSt3__114__split_bufferIP3CarNS_9allocatorIS2_EEE5beginB8ue170006Ev, symObjAddr: 0x2C00, symBinAddr: 0x100003D24, symSize: 0x18 }
  - { offsetInCU: 0xC409, offset: 0xC409, size: 0x8, addend: 0x0, symName: __ZNKSt3__15dequeI3CarNS_9allocatorIS1_EEE4sizeB8ue170006Ev, symObjAddr: 0x2C18, symBinAddr: 0x100003D3C, symSize: 0x28 }
  - { offsetInCU: 0xC42F, offset: 0xC42F, size: 0x8, addend: 0x0, symName: __ZNKSt3__15dequeI3CarNS_9allocatorIS1_EEE44__annotate_double_ended_contiguous_containerB8ue170006EPKvS6_S6_S6_S6_S6_, symObjAddr: 0x2C54, symBinAddr: 0x100003D78, symSize: 0x28 }
  - { offsetInCU: 0xC49D, offset: 0xC49D, size: 0x8, addend: 0x0, symName: __ZNKSt3__15dequeI3CarNS_9allocatorIS1_EEE6__sizeB8ue170006Ev, symObjAddr: 0x2C7C, symBinAddr: 0x100003DA0, symSize: 0x28 }
  - { offsetInCU: 0xC4C3, offset: 0xC4C3, size: 0x8, addend: 0x0, symName: __ZNKSt3__117__compressed_pairImNS_9allocatorI3CarEEE5firstB8ue170006Ev, symObjAddr: 0x2CA4, symBinAddr: 0x100003DC8, symSize: 0x24 }
  - { offsetInCU: 0xC4E9, offset: 0xC4E9, size: 0x8, addend: 0x0, symName: __ZNKSt3__122__compressed_pair_elemImLi0ELb0EE5__getB8ue170006Ev, symObjAddr: 0x2CC8, symBinAddr: 0x100003DEC, symSize: 0x14 }
  - { offsetInCU: 0xC50F, offset: 0xC50F, size: 0x8, addend: 0x0, symName: __ZNSt3__114__split_bufferIP3CarNS_9allocatorIS2_EEED2Ev, symObjAddr: 0x2CDC, symBinAddr: 0x100003E00, symSize: 0x80 }
  - { offsetInCU: 0xC53B, offset: 0xC53B, size: 0x8, addend: 0x0, symName: __ZNSt3__114__split_bufferIP3CarNS_9allocatorIS2_EEE5clearB8ue170006Ev, symObjAddr: 0x2D5C, symBinAddr: 0x100003E80, symSize: 0x28 }
  - { offsetInCU: 0xC561, offset: 0xC561, size: 0x8, addend: 0x0, symName: __ZNSt3__116allocator_traitsINS_9allocatorIP3CarEEE10deallocateB8ue170006ERS4_PS3_m, symObjAddr: 0x2D84, symBinAddr: 0x100003EA8, symSize: 0x34 }
  - { offsetInCU: 0xC5A3, offset: 0xC5A3, size: 0x8, addend: 0x0, symName: __ZNSt3__114__split_bufferIP3CarNS_9allocatorIS2_EEE7__allocB8ue170006Ev, symObjAddr: 0x2DB8, symBinAddr: 0x100003EDC, symSize: 0x28 }
  - { offsetInCU: 0xC5C9, offset: 0xC5C9, size: 0x8, addend: 0x0, symName: __ZNKSt3__114__split_bufferIP3CarNS_9allocatorIS2_EEE8capacityB8ue170006Ev, symObjAddr: 0x2DE0, symBinAddr: 0x100003F04, symSize: 0x40 }
  - { offsetInCU: 0xC5EF, offset: 0xC5EF, size: 0x8, addend: 0x0, symName: __ZNSt3__114__split_bufferIP3CarNS_9allocatorIS2_EEE17__destruct_at_endB8ue170006EPS2_, symObjAddr: 0x2E20, symBinAddr: 0x100003F44, symSize: 0x2C }
  - { offsetInCU: 0xC623, offset: 0xC623, size: 0x8, addend: 0x0, symName: __ZNSt3__114__split_bufferIP3CarNS_9allocatorIS2_EEE17__destruct_at_endB8ue170006EPS2_NS_17integral_constantIbLb0EEE, symObjAddr: 0x2E4C, symBinAddr: 0x100003F70, symSize: 0x94 }
  - { offsetInCU: 0xC663, offset: 0xC663, size: 0x8, addend: 0x0, symName: __ZNSt3__116allocator_traitsINS_9allocatorIP3CarEEE7destroyB8ue170006IS3_vEEvRS4_PT_, symObjAddr: 0x2EE0, symBinAddr: 0x100004004, symSize: 0x2C }
  - { offsetInCU: 0xC6A0, offset: 0xC6A0, size: 0x8, addend: 0x0, symName: __ZNSt3__19allocatorIP3CarE7destroyB8ue170006EPS2_, symObjAddr: 0x2F20, symBinAddr: 0x100004044, symSize: 0x14 }
  - { offsetInCU: 0xC6D4, offset: 0xC6D4, size: 0x8, addend: 0x0, symName: __ZNSt3__19allocatorIP3CarE10deallocateB8ue170006EPS2_m, symObjAddr: 0x2F34, symBinAddr: 0x100004058, symSize: 0x70 }
  - { offsetInCU: 0xC716, offset: 0xC716, size: 0x8, addend: 0x0, symName: __ZNSt3__117__compressed_pairIPP3CarNS_9allocatorIS2_EEE6secondB8ue170006Ev, symObjAddr: 0x3020, symBinAddr: 0x100004144, symSize: 0x24 }
  - { offsetInCU: 0xC73C, offset: 0xC73C, size: 0x8, addend: 0x0, symName: __ZNSt3__122__compressed_pair_elemINS_9allocatorIP3CarEELi1ELb1EE5__getB8ue170006Ev, symObjAddr: 0x3044, symBinAddr: 0x100004168, symSize: 0x14 }
  - { offsetInCU: 0xC762, offset: 0xC762, size: 0x8, addend: 0x0, symName: __ZNKSt3__114__split_bufferIP3CarNS_9allocatorIS2_EEE9__end_capB8ue170006Ev, symObjAddr: 0x3058, symBinAddr: 0x10000417C, symSize: 0x28 }
  - { offsetInCU: 0xC788, offset: 0xC788, size: 0x8, addend: 0x0, symName: __ZNKSt3__117__compressed_pairIPP3CarNS_9allocatorIS2_EEE5firstB8ue170006Ev, symObjAddr: 0x3080, symBinAddr: 0x1000041A4, symSize: 0x24 }
  - { offsetInCU: 0xC7AE, offset: 0xC7AE, size: 0x8, addend: 0x0, symName: __ZNKSt3__122__compressed_pair_elemIPP3CarLi0ELb0EE5__getB8ue170006Ev, symObjAddr: 0x30A4, symBinAddr: 0x1000041C8, symSize: 0x14 }
  - { offsetInCU: 0xC7D4, offset: 0xC7D4, size: 0x8, addend: 0x0, symName: __ZNSt3__15dequeI3CarNS_9allocatorIS1_EEED2B8ue170006Ev, symObjAddr: 0x30B8, symBinAddr: 0x1000041DC, symSize: 0xA4 }
  - { offsetInCU: 0xC82B, offset: 0xC82B, size: 0x8, addend: 0x0, symName: __ZNSt3__15dequeI3CarNS_9allocatorIS1_EEE5clearEv, symObjAddr: 0x315C, symBinAddr: 0x100004280, symSize: 0x194 }
  - { offsetInCU: 0xC88F, offset: 0xC88F, size: 0x8, addend: 0x0, symName: __ZNKSt3__15dequeI3CarNS_9allocatorIS1_EEE17__annotate_deleteB8ue170006Ev, symObjAddr: 0x32F0, symBinAddr: 0x100004414, symSize: 0xE8 }
  - { offsetInCU: 0xC8D3, offset: 0xC8D3, size: 0x8, addend: 0x0, symName: __ZNSt3__114__split_bufferIP3CarNS_9allocatorIS2_EEE5beginB8ue170006Ev, symObjAddr: 0x33D8, symBinAddr: 0x1000044FC, symSize: 0x18 }
  - { offsetInCU: 0xC8F9, offset: 0xC8F9, size: 0x8, addend: 0x0, symName: __ZNSt3__114__split_bufferIP3CarNS_9allocatorIS2_EEE3endB8ue170006Ev, symObjAddr: 0x33F0, symBinAddr: 0x100004514, symSize: 0x18 }
  - { offsetInCU: 0xC91F, offset: 0xC91F, size: 0x8, addend: 0x0, symName: __ZNSt3__116allocator_traitsINS_9allocatorI3CarEEE10deallocateB8ue170006ERS3_PS2_m, symObjAddr: 0x3408, symBinAddr: 0x10000452C, symSize: 0x34 }
  - { offsetInCU: 0xC961, offset: 0xC961, size: 0x8, addend: 0x0, symName: __ZNSt3__15dequeI3CarNS_9allocatorIS1_EEE7__allocB8ue170006Ev, symObjAddr: 0x343C, symBinAddr: 0x100004560, symSize: 0x28 }
  - { offsetInCU: 0xC987, offset: 0xC987, size: 0x8, addend: 0x0, symName: __ZNSt3__116allocator_traitsINS_9allocatorI3CarEEE7destroyB8ue170006IS2_vEEvRS3_PT_, symObjAddr: 0x3464, symBinAddr: 0x100004588, symSize: 0x2C }
  - { offsetInCU: 0xC9C4, offset: 0xC9C4, size: 0x8, addend: 0x0, symName: __ZNSt3__15dequeI3CarNS_9allocatorIS1_EEE6__sizeB8ue170006Ev, symObjAddr: 0x3490, symBinAddr: 0x1000045B4, symSize: 0x28 }
  - { offsetInCU: 0xC9EA, offset: 0xC9EA, size: 0x8, addend: 0x0, symName: __ZNSt3__114__split_bufferIP3CarNS_9allocatorIS2_EEE5frontB8ue170006Ev, symObjAddr: 0x34B8, symBinAddr: 0x1000045DC, symSize: 0x18 }
  - { offsetInCU: 0xCA10, offset: 0xCA10, size: 0x8, addend: 0x0, symName: __ZNSt3__114__split_bufferIP3CarNS_9allocatorIS2_EEE9pop_frontB8ue170006Ev, symObjAddr: 0x34D0, symBinAddr: 0x1000045F4, symSize: 0x2C }
  - { offsetInCU: 0xCA36, offset: 0xCA36, size: 0x8, addend: 0x0, symName: __ZNSt3__19allocatorI3CarE7destroyB8ue170006EPS1_, symObjAddr: 0x34FC, symBinAddr: 0x100004620, symSize: 0x28 }
  - { offsetInCU: 0xCA6A, offset: 0xCA6A, size: 0x8, addend: 0x0, symName: __ZNSt3__117__compressed_pairImNS_9allocatorI3CarEEE5firstB8ue170006Ev, symObjAddr: 0x3524, symBinAddr: 0x100004648, symSize: 0x24 }
  - { offsetInCU: 0xCA90, offset: 0xCA90, size: 0x8, addend: 0x0, symName: __ZNSt3__122__compressed_pair_elemImLi0ELb0EE5__getB8ue170006Ev, symObjAddr: 0x3548, symBinAddr: 0x10000466C, symSize: 0x14 }
  - { offsetInCU: 0xCAB6, offset: 0xCAB6, size: 0x8, addend: 0x0, symName: __ZNSt3__114__split_bufferIP3CarNS_9allocatorIS2_EEE19__destruct_at_beginB8ue170006EPS2_, symObjAddr: 0x355C, symBinAddr: 0x100004680, symSize: 0x2C }
  - { offsetInCU: 0xCAEA, offset: 0xCAEA, size: 0x8, addend: 0x0, symName: __ZNSt3__114__split_bufferIP3CarNS_9allocatorIS2_EEE19__destruct_at_beginEPS2_NS_17integral_constantIbLb1EEE, symObjAddr: 0x3588, symBinAddr: 0x1000046AC, symSize: 0x20 }
  - { offsetInCU: 0xCB2A, offset: 0xCB2A, size: 0x8, addend: 0x0, symName: __ZNKSt3__15dequeI3CarNS_9allocatorIS1_EEE22__annotate_whole_blockB8ue170006EmNS4_22__asan_annotation_typeE, symObjAddr: 0x35A8, symBinAddr: 0x1000046CC, symSize: 0xB0 }
  - { offsetInCU: 0xCB9B, offset: 0xCB9B, size: 0x8, addend: 0x0, symName: __ZNKSt3__15dequeI3CarNS_9allocatorIS1_EEE23__annotate_poison_blockB8ue170006EPKvS6_, symObjAddr: 0x3658, symBinAddr: 0x10000477C, symSize: 0x44 }
  - { offsetInCU: 0xCBDF, offset: 0xCBDF, size: 0x8, addend: 0x0, symName: __ZNSt3__19allocatorI3CarE10deallocateB8ue170006EPS1_m, symObjAddr: 0x369C, symBinAddr: 0x1000047C0, symSize: 0x74 }
  - { offsetInCU: 0xCC21, offset: 0xCC21, size: 0x8, addend: 0x0, symName: __ZNSt3__117__compressed_pairImNS_9allocatorI3CarEEE6secondB8ue170006Ev, symObjAddr: 0x3710, symBinAddr: 0x100004834, symSize: 0x24 }
  - { offsetInCU: 0xCC47, offset: 0xCC47, size: 0x8, addend: 0x0, symName: __ZNSt3__122__compressed_pair_elemINS_9allocatorI3CarEELi1ELb1EE5__getB8ue170006Ev, symObjAddr: 0x3734, symBinAddr: 0x100004858, symSize: 0x14 }
  - { offsetInCU: 0xCC6D, offset: 0xCC6D, size: 0x8, addend: 0x0, symName: __ZNKSt3__114__split_bufferIP3CarNS_9allocatorIS2_EEE5emptyB8ue170006Ev, symObjAddr: 0x3748, symBinAddr: 0x10000486C, symSize: 0x28 }
  - { offsetInCU: 0xCC93, offset: 0xCC93, size: 0x8, addend: 0x0, symName: __ZNSt3__116__deque_iteratorI3CarPS1_RS1_PS2_lLl16EEC1B8ue170006ES4_S2_, symObjAddr: 0x3770, symBinAddr: 0x100004894, symSize: 0x3C }
  - { offsetInCU: 0xCCDB, offset: 0xCCDB, size: 0x8, addend: 0x0, symName: __ZNSt3__116__deque_iteratorI3CarPS1_RS1_PS2_lLl16EEC2B8ue170006ES4_S2_, symObjAddr: 0x37AC, symBinAddr: 0x1000048D0, symSize: 0x2C }
  - { offsetInCU: 0xCD23, offset: 0xCD23, size: 0x8, addend: 0x0, symName: __ZNKSt3__15dequeI3CarNS_9allocatorIS1_EEE23__annotate_shrink_frontB8ue170006Emm, symObjAddr: 0x3808, symBinAddr: 0x10000492C, symSize: 0x70 }
  - { offsetInCU: 0xCD67, offset: 0xCD67, size: 0x8, addend: 0x0, symName: __ZNSt3__15dequeI3CarNS_9allocatorIS1_EEE26__maybe_remove_front_spareB8ue170006Eb, symObjAddr: 0x3878, symBinAddr: 0x10000499C, symSize: 0xEC }
  - { offsetInCU: 0xCD9C, offset: 0xCD9C, size: 0x8, addend: 0x0, symName: __ZNKSt3__15dequeI3CarNS_9allocatorIS1_EEE20__front_spare_blocksB8ue170006Ev, symObjAddr: 0x3964, symBinAddr: 0x100004A88, symSize: 0x2C }
  - { offsetInCU: 0xCDC2, offset: 0xCDC2, size: 0x8, addend: 0x0, symName: __ZNKSt3__15dequeI3CarNS_9allocatorIS1_EEE13__front_spareB8ue170006Ev, symObjAddr: 0x3990, symBinAddr: 0x100004AB4, symSize: 0x18 }
  - { offsetInCU: 0xCDE8, offset: 0xCDE8, size: 0x8, addend: 0x0, symName: __ZNKSt3__15dequeI3CarNS_9allocatorIS1_EEE12__back_spareB8ue170006Ev, symObjAddr: 0x39A8, symBinAddr: 0x100004ACC, symSize: 0x54 }
  - { offsetInCU: 0xCE0E, offset: 0xCE0E, size: 0x8, addend: 0x0, symName: __ZNSt3__15dequeI3CarNS_9allocatorIS1_EEE19__add_back_capacityEv, symObjAddr: 0x39FC, symBinAddr: 0x100004B20, symSize: 0x364 }
  - { offsetInCU: 0xCEC6, offset: 0xCEC6, size: 0x8, addend: 0x0, symName: __ZNKSt3__15dequeI3CarNS_9allocatorIS1_EEE24__annotate_increase_backB8ue170006Em, symObjAddr: 0x3D60, symBinAddr: 0x100004E84, symSize: 0x7C }
  - { offsetInCU: 0xCEFB, offset: 0xCEFB, size: 0x8, addend: 0x0, symName: __ZNSt3__116allocator_traitsINS_9allocatorI3CarEEE9constructB8ue170006IS2_JRKS2_EvEEvRS3_PT_DpOT0_, symObjAddr: 0x3DDC, symBinAddr: 0x100004F00, symSize: 0x34 }
  - { offsetInCU: 0xCF52, offset: 0xCF52, size: 0x8, addend: 0x0, symName: __ZNKSt3__15dequeI3CarNS_9allocatorIS1_EEE10__capacityB8ue170006Ev, symObjAddr: 0x3E10, symBinAddr: 0x100004F34, symSize: 0x60 }
  - { offsetInCU: 0xCF78, offset: 0xCF78, size: 0x8, addend: 0x0, symName: __ZNSt3__114__split_bufferIP3CarNS_9allocatorIS2_EEE9push_backB8ue170006ERKS2_, symObjAddr: 0x3E70, symBinAddr: 0x100004F94, symSize: 0x270 }
  - { offsetInCU: 0xCFF1, offset: 0xCFF1, size: 0x8, addend: 0x0, symName: __ZNKSt3__114__split_bufferIP3CarNS_9allocatorIS2_EEE12__back_spareB8ue170006Ev, symObjAddr: 0x40E0, symBinAddr: 0x100005204, symSize: 0x40 }
  - { offsetInCU: 0xD017, offset: 0xD017, size: 0x8, addend: 0x0, symName: __ZNSt3__114__split_bufferIP3CarNS_9allocatorIS2_EEE9push_backEOS2_, symObjAddr: 0x4120, symBinAddr: 0x100005244, symSize: 0x270 }
  - { offsetInCU: 0xD090, offset: 0xD090, size: 0x8, addend: 0x0, symName: __ZNSt3__116allocator_traitsINS_9allocatorI3CarEEE8allocateB8ue170006ERS3_m, symObjAddr: 0x4390, symBinAddr: 0x1000054B4, symSize: 0x2C }
  - { offsetInCU: 0xD0C3, offset: 0xD0C3, size: 0x8, addend: 0x0, symName: __ZNSt3__114__split_bufferIP3CarNS_9allocatorIS2_EEE10push_frontEOS2_, symObjAddr: 0x43BC, symBinAddr: 0x1000054E0, symSize: 0x26C }
  - { offsetInCU: 0xD13C, offset: 0xD13C, size: 0x8, addend: 0x0, symName: __ZNSt3__114__split_bufferIP3CarRNS_9allocatorIS2_EEEC1EmmS5_, symObjAddr: 0x4654, symBinAddr: 0x100005778, symSize: 0x44 }
  - { offsetInCU: 0xD197, offset: 0xD197, size: 0x8, addend: 0x0, symName: __ZNSt3__122__allocator_destructorINS_9allocatorI3CarEEEC1B8ue170006ERS3_m, symObjAddr: 0x4698, symBinAddr: 0x1000057BC, symSize: 0x3C }
  - { offsetInCU: 0xD25F, offset: 0xD25F, size: 0x8, addend: 0x0, symName: __ZNSt3__110unique_ptrIP3CarNS_22__allocator_destructorINS_9allocatorIS1_EEEEEC1B8ue170006ILb1EvEES2_NS_16__dependent_typeINS_27__unique_ptr_deleter_sfinaeIS6_EEXT_EE20__good_rval_ref_typeE, symObjAddr: 0x46D4, symBinAddr: 0x1000057F8, symSize: 0x3C }
  - { offsetInCU: 0xD2B0, offset: 0xD2B0, size: 0x8, addend: 0x0, symName: __ZNSt3__114__split_bufferIP3CarRNS_9allocatorIS2_EEE9push_backEOS2_, symObjAddr: 0x4710, symBinAddr: 0x100005834, symSize: 0x270 }
  - { offsetInCU: 0xD329, offset: 0xD329, size: 0x8, addend: 0x0, symName: __ZNKSt3__110unique_ptrIP3CarNS_22__allocator_destructorINS_9allocatorIS1_EEEEE3getB8ue170006Ev, symObjAddr: 0x4980, symBinAddr: 0x100005AA4, symSize: 0x28 }
  - { offsetInCU: 0xD34F, offset: 0xD34F, size: 0x8, addend: 0x0, symName: __ZNSt3__110unique_ptrIP3CarNS_22__allocator_destructorINS_9allocatorIS1_EEEEE7releaseB8ue170006Ev, symObjAddr: 0x49A8, symBinAddr: 0x100005ACC, symSize: 0x44 }
  - { offsetInCU: 0xD384, offset: 0xD384, size: 0x8, addend: 0x0, symName: __ZNSt3__114__split_bufferIP3CarRNS_9allocatorIS2_EEE10push_frontERKS2_, symObjAddr: 0x49EC, symBinAddr: 0x100005B10, symSize: 0x26C }
  - { offsetInCU: 0xD3FD, offset: 0xD3FD, size: 0x8, addend: 0x0, symName: __ZNSt3__114__split_bufferIP3CarNS_9allocatorIS2_EEE9__end_capB8ue170006Ev, symObjAddr: 0x4C94, symBinAddr: 0x100005DB8, symSize: 0x28 }
  - { offsetInCU: 0xD423, offset: 0xD423, size: 0x8, addend: 0x0, symName: __ZNSt3__114__split_bufferIP3CarRNS_9allocatorIS2_EEE9__end_capB8ue170006Ev, symObjAddr: 0x4CBC, symBinAddr: 0x100005DE0, symSize: 0x28 }
  - { offsetInCU: 0xD449, offset: 0xD449, size: 0x8, addend: 0x0, symName: __ZNSt3__110unique_ptrIP3CarNS_22__allocator_destructorINS_9allocatorIS1_EEEEED1B8ue170006Ev, symObjAddr: 0x4CE4, symBinAddr: 0x100005E08, symSize: 0x2C }
  - { offsetInCU: 0xD473, offset: 0xD473, size: 0x8, addend: 0x0, symName: __ZNSt3__114__split_bufferIP3CarRNS_9allocatorIS2_EEED1Ev, symObjAddr: 0x4D10, symBinAddr: 0x100005E34, symSize: 0x2C }
  - { offsetInCU: 0xD49F, offset: 0xD49F, size: 0x8, addend: 0x0, symName: __ZNSt3__114__split_bufferIP3CarRNS_9allocatorIS2_EEE18__construct_at_endINS_13move_iteratorIPS2_EEEENS_9enable_ifIXsr31__has_forward_iterator_categoryIT_EE5valueEvE4typeESC_SC_, symObjAddr: 0x4D7C, symBinAddr: 0x100005EA0, symSize: 0x60 }
  - { offsetInCU: 0xD4EC, offset: 0xD4EC, size: 0x8, addend: 0x0, symName: __ZNSt3__113move_iteratorIPP3CarEC1B8ue170006ES3_, symObjAddr: 0x4DDC, symBinAddr: 0x100005F00, symSize: 0x34 }
  - { offsetInCU: 0xD524, offset: 0xD524, size: 0x8, addend: 0x0, symName: __ZNSt3__116allocator_traitsINS_9allocatorIP3CarEEE9constructB8ue170006IS3_JRKS3_EvEEvRS4_PT_DpOT0_, symObjAddr: 0x4E10, symBinAddr: 0x100005F34, symSize: 0x34 }
  - { offsetInCU: 0xD59E, offset: 0xD59E, size: 0x8, addend: 0x0, symName: __ZNKSt3__114__move_trivialclB8ue170006IP3CarS3_Li0EEENS_4pairIPT_PT0_EES6_S6_S8_, symObjAddr: 0x4FE0, symBinAddr: 0x100006104, symSize: 0x48 }
  - { offsetInCU: 0xD606, offset: 0xD606, size: 0x8, addend: 0x0, symName: __ZNSt3__14pairIPP3CarS3_EC1B8ue170006ERKS3_S6_, symObjAddr: 0x5258, symBinAddr: 0x10000637C, symSize: 0x3C }
  - { offsetInCU: 0xD64C, offset: 0xD64C, size: 0x8, addend: 0x0, symName: __ZNSt3__14pairIPP3CarS3_EC2B8ue170006ERKS3_S6_, symObjAddr: 0x5294, symBinAddr: 0x1000063B8, symSize: 0x34 }
  - { offsetInCU: 0xD692, offset: 0xD692, size: 0x8, addend: 0x0, symName: __ZNSt3__118__unwrap_iter_implIPP3CarLb1EE8__unwrapB8ue170006ES3_, symObjAddr: 0x52C8, symBinAddr: 0x1000063EC, symSize: 0x24 }
  - { offsetInCU: 0xD6B5, offset: 0xD6B5, size: 0x8, addend: 0x0, symName: __ZNSt3__118__unwrap_iter_implIPP3CarLb1EE8__rewrapB8ue170006ES3_S3_, symObjAddr: 0x52EC, symBinAddr: 0x100006410, symSize: 0x50 }
  - { offsetInCU: 0xD6E6, offset: 0xD6E6, size: 0x8, addend: 0x0, symName: __ZNSt3__114__split_bufferIP3CarRNS_9allocatorIS2_EEE28__construct_at_end_with_sizeINS_13move_iteratorIPS2_EEEEvT_m, symObjAddr: 0x533C, symBinAddr: 0x100006460, symSize: 0xE4 }
  - { offsetInCU: 0xD74C, offset: 0xD74C, size: 0x8, addend: 0x0, symName: __ZNSt3__114__split_bufferIP3CarRNS_9allocatorIS2_EEE21_ConstructTransactionC1B8ue170006EPPS2_m, symObjAddr: 0x545C, symBinAddr: 0x100006580, symSize: 0x3C }
  - { offsetInCU: 0xD792, offset: 0xD792, size: 0x8, addend: 0x0, symName: __ZNSt3__116allocator_traitsINS_9allocatorIP3CarEEE9constructB8ue170006IS3_JS3_EvEEvRS4_PT_DpOT0_, symObjAddr: 0x5498, symBinAddr: 0x1000065BC, symSize: 0x34 }
  - { offsetInCU: 0xD7E9, offset: 0xD7E9, size: 0x8, addend: 0x0, symName: __ZNSt3__114__split_bufferIP3CarRNS_9allocatorIS2_EEE7__allocB8ue170006Ev, symObjAddr: 0x54CC, symBinAddr: 0x1000065F0, symSize: 0x28 }
  - { offsetInCU: 0xD80F, offset: 0xD80F, size: 0x8, addend: 0x0, symName: __ZNKSt3__113move_iteratorIPP3CarEdeB8ue170006Ev, symObjAddr: 0x54F4, symBinAddr: 0x100006618, symSize: 0x18 }
  - { offsetInCU: 0xD835, offset: 0xD835, size: 0x8, addend: 0x0, symName: __ZNSt3__113move_iteratorIPP3CarEppB8ue170006Ev, symObjAddr: 0x550C, symBinAddr: 0x100006630, symSize: 0x20 }
  - { offsetInCU: 0xD85B, offset: 0xD85B, size: 0x8, addend: 0x0, symName: __ZNSt3__114__split_bufferIP3CarRNS_9allocatorIS2_EEE21_ConstructTransactionD1B8ue170006Ev, symObjAddr: 0x552C, symBinAddr: 0x100006650, symSize: 0x2C }
  - { offsetInCU: 0xD885, offset: 0xD885, size: 0x8, addend: 0x0, symName: __ZNSt3__114__split_bufferIP3CarRNS_9allocatorIS2_EEE21_ConstructTransactionC2B8ue170006EPPS2_m, symObjAddr: 0x5558, symBinAddr: 0x10000667C, symSize: 0x44 }
  - { offsetInCU: 0xD8CB, offset: 0xD8CB, size: 0x8, addend: 0x0, symName: __ZNSt3__19allocatorIP3CarE9constructB8ue170006IS2_JS2_EEEvPT_DpOT0_, symObjAddr: 0x559C, symBinAddr: 0x1000066C0, symSize: 0x28 }
  - { offsetInCU: 0xD921, offset: 0xD921, size: 0x8, addend: 0x0, symName: __ZNSt3__117__compressed_pairIPP3CarRNS_9allocatorIS2_EEE6secondB8ue170006Ev, symObjAddr: 0x55C4, symBinAddr: 0x1000066E8, symSize: 0x28 }
  - { offsetInCU: 0xD947, offset: 0xD947, size: 0x8, addend: 0x0, symName: __ZNSt3__122__compressed_pair_elemIRNS_9allocatorIP3CarEELi1ELb0EE5__getB8ue170006Ev, symObjAddr: 0x55EC, symBinAddr: 0x100006710, symSize: 0x18 }
  - { offsetInCU: 0xD96D, offset: 0xD96D, size: 0x8, addend: 0x0, symName: __ZNSt3__114__split_bufferIP3CarRNS_9allocatorIS2_EEE21_ConstructTransactionD2B8ue170006Ev, symObjAddr: 0x5604, symBinAddr: 0x100006728, symSize: 0x20 }
  - { offsetInCU: 0xD997, offset: 0xD997, size: 0x8, addend: 0x0, symName: __ZNKSt3__113move_iteratorIPP3CarE4baseB8ue170006Ev, symObjAddr: 0x569C, symBinAddr: 0x1000067C0, symSize: 0x18 }
  - { offsetInCU: 0xD9BD, offset: 0xD9BD, size: 0x8, addend: 0x0, symName: __ZNSt3__113move_iteratorIPP3CarEC2B8ue170006ES3_, symObjAddr: 0x56B4, symBinAddr: 0x1000067D8, symSize: 0x20 }
  - { offsetInCU: 0xD9F5, offset: 0xD9F5, size: 0x8, addend: 0x0, symName: __ZNSt3__19allocatorIP3CarE9constructB8ue170006IS2_JRKS2_EEEvPT_DpOT0_, symObjAddr: 0x56D4, symBinAddr: 0x1000067F8, symSize: 0x28 }
  - { offsetInCU: 0xDA4B, offset: 0xDA4B, size: 0x8, addend: 0x0, symName: __ZNSt3__19allocatorI3CarE8allocateB8ue170006Em, symObjAddr: 0x56FC, symBinAddr: 0x100006820, symSize: 0x8C }
  - { offsetInCU: 0xDA89, offset: 0xDA89, size: 0x8, addend: 0x0, symName: __ZNSt3__116allocator_traitsINS_9allocatorI3CarEEE8max_sizeB8ue170006IS3_vEEmRKS3_, symObjAddr: 0x5788, symBinAddr: 0x1000068AC, symSize: 0x24 }
  - { offsetInCU: 0xDAB7, offset: 0xDAB7, size: 0x8, addend: 0x0, symName: __ZNKSt3__19allocatorI3CarE8max_sizeB8ue170006Ev, symObjAddr: 0x57AC, symBinAddr: 0x1000068D0, symSize: 0x20 }
  - { offsetInCU: 0xDAE7, offset: 0xDAE7, size: 0x8, addend: 0x0, symName: __ZNKSt3__123__move_backward_trivialclB8ue170006IP3CarS3_Li0EEENS_4pairIPT_PT0_EES6_S6_S8_, symObjAddr: 0x5948, symBinAddr: 0x100006A6C, symSize: 0x48 }
  - { offsetInCU: 0xDB59, offset: 0xDB59, size: 0x8, addend: 0x0, symName: __ZNKSt3__16__lessIvvEclB8ue170006ImmEEbRKT_RKT0_, symObjAddr: 0x5AAC, symBinAddr: 0x100006BD0, symSize: 0x34 }
  - { offsetInCU: 0xDBAD, offset: 0xDBAD, size: 0x8, addend: 0x0, symName: __ZNSt3__114__split_bufferIP3CarRNS_9allocatorIS2_EEEC2EmmS5_, symObjAddr: 0x5AE0, symBinAddr: 0x100006C04, symSize: 0xD4 }
  - { offsetInCU: 0xDC21, offset: 0xDC21, size: 0x8, addend: 0x0, symName: __ZNSt3__117__compressed_pairIPP3CarRNS_9allocatorIS2_EEEC1B8ue170006IDnS6_EEOT_OT0_, symObjAddr: 0x5BB4, symBinAddr: 0x100006CD8, symSize: 0x3C }
  - { offsetInCU: 0xDC79, offset: 0xDC79, size: 0x8, addend: 0x0, symName: __ZNSt3__117__compressed_pairIPP3CarRNS_9allocatorIS2_EEEC2B8ue170006IDnS6_EEOT_OT0_, symObjAddr: 0x5C30, symBinAddr: 0x100006D54, symSize: 0x48 }
  - { offsetInCU: 0xDCD1, offset: 0xDCD1, size: 0x8, addend: 0x0, symName: __ZNSt3__122__compressed_pair_elemIRNS_9allocatorIP3CarEELi1ELb0EEC2B8ue170006IS5_vEEOT_, symObjAddr: 0x5C78, symBinAddr: 0x100006D9C, symSize: 0x20 }
  - { offsetInCU: 0xDD13, offset: 0xDD13, size: 0x8, addend: 0x0, symName: __ZNSt3__19allocatorIP3CarE8allocateB8ue170006Em, symObjAddr: 0x5C98, symBinAddr: 0x100006DBC, symSize: 0x84 }
  - { offsetInCU: 0xDD51, offset: 0xDD51, size: 0x8, addend: 0x0, symName: __ZNSt3__116allocator_traitsINS_9allocatorIP3CarEEE8max_sizeB8ue170006IS4_vEEmRKS4_, symObjAddr: 0x5D1C, symBinAddr: 0x100006E40, symSize: 0x24 }
  - { offsetInCU: 0xDD7F, offset: 0xDD7F, size: 0x8, addend: 0x0, symName: __ZNKSt3__19allocatorIP3CarE8max_sizeB8ue170006Ev, symObjAddr: 0x5D40, symBinAddr: 0x100006E64, symSize: 0x14 }
  - { offsetInCU: 0xDDA5, offset: 0xDDA5, size: 0x8, addend: 0x0, symName: __ZNSt3__122__allocator_destructorINS_9allocatorI3CarEEEC2B8ue170006ERS3_m, symObjAddr: 0x5D54, symBinAddr: 0x100006E78, symSize: 0x2C }
  - { offsetInCU: 0xDDEB, offset: 0xDDEB, size: 0x8, addend: 0x0, symName: __ZNSt3__110unique_ptrIP3CarNS_22__allocator_destructorINS_9allocatorIS1_EEEEEC2B8ue170006ILb1EvEES2_NS_16__dependent_typeINS_27__unique_ptr_deleter_sfinaeIS6_EEXT_EE20__good_rval_ref_typeE, symObjAddr: 0x5D80, symBinAddr: 0x100006EA4, symSize: 0x5C }
  - { offsetInCU: 0xDE3C, offset: 0xDE3C, size: 0x8, addend: 0x0, symName: __ZNSt3__117__compressed_pairIP3CarNS_22__allocator_destructorINS_9allocatorIS1_EEEEEC1B8ue170006IRS2_S6_EEOT_OT0_, symObjAddr: 0x5DDC, symBinAddr: 0x100006F00, symSize: 0x3C }
  - { offsetInCU: 0xDE94, offset: 0xDE94, size: 0x8, addend: 0x0, symName: __ZNSt3__117__compressed_pairIP3CarNS_22__allocator_destructorINS_9allocatorIS1_EEEEEC2B8ue170006IRS2_S6_EEOT_OT0_, symObjAddr: 0x5E18, symBinAddr: 0x100006F3C, symSize: 0x48 }
  - { offsetInCU: 0xDEEC, offset: 0xDEEC, size: 0x8, addend: 0x0, symName: __ZNSt3__122__compressed_pair_elemIP3CarLi0ELb0EEC2B8ue170006IRS2_vEEOT_, symObjAddr: 0x5E60, symBinAddr: 0x100006F84, symSize: 0x24 }
  - { offsetInCU: 0xDF2E, offset: 0xDF2E, size: 0x8, addend: 0x0, symName: __ZNSt3__122__compressed_pair_elemINS_22__allocator_destructorINS_9allocatorI3CarEEEELi1ELb0EEC2B8ue170006IS5_vEEOT_, symObjAddr: 0x5E84, symBinAddr: 0x100006FA8, symSize: 0x24 }
  - { offsetInCU: 0xDF70, offset: 0xDF70, size: 0x8, addend: 0x0, symName: __ZNKSt3__117__compressed_pairIP3CarNS_22__allocator_destructorINS_9allocatorIS1_EEEEE5firstB8ue170006Ev, symObjAddr: 0x5EA8, symBinAddr: 0x100006FCC, symSize: 0x24 }
  - { offsetInCU: 0xDF96, offset: 0xDF96, size: 0x8, addend: 0x0, symName: __ZNKSt3__122__compressed_pair_elemIP3CarLi0ELb0EE5__getB8ue170006Ev, symObjAddr: 0x5ECC, symBinAddr: 0x100006FF0, symSize: 0x14 }
  - { offsetInCU: 0xDFBC, offset: 0xDFBC, size: 0x8, addend: 0x0, symName: __ZNSt3__117__compressed_pairIP3CarNS_22__allocator_destructorINS_9allocatorIS1_EEEEE5firstB8ue170006Ev, symObjAddr: 0x5EE0, symBinAddr: 0x100007004, symSize: 0x24 }
  - { offsetInCU: 0xDFE2, offset: 0xDFE2, size: 0x8, addend: 0x0, symName: __ZNSt3__122__compressed_pair_elemIP3CarLi0ELb0EE5__getB8ue170006Ev, symObjAddr: 0x5F04, symBinAddr: 0x100007028, symSize: 0x14 }
  - { offsetInCU: 0xE008, offset: 0xE008, size: 0x8, addend: 0x0, symName: __ZNSt3__117__compressed_pairIPP3CarNS_9allocatorIS2_EEE5firstB8ue170006Ev, symObjAddr: 0x5F18, symBinAddr: 0x10000703C, symSize: 0x24 }
  - { offsetInCU: 0xE02E, offset: 0xE02E, size: 0x8, addend: 0x0, symName: __ZNSt3__122__compressed_pair_elemIPP3CarLi0ELb0EE5__getB8ue170006Ev, symObjAddr: 0x5F3C, symBinAddr: 0x100007060, symSize: 0x14 }
  - { offsetInCU: 0xE054, offset: 0xE054, size: 0x8, addend: 0x0, symName: __ZNSt3__117__compressed_pairIPP3CarRNS_9allocatorIS2_EEE5firstB8ue170006Ev, symObjAddr: 0x5F50, symBinAddr: 0x100007074, symSize: 0x24 }
  - { offsetInCU: 0xE07A, offset: 0xE07A, size: 0x8, addend: 0x0, symName: __ZNSt3__110unique_ptrIP3CarNS_22__allocator_destructorINS_9allocatorIS1_EEEEED2B8ue170006Ev, symObjAddr: 0x5F74, symBinAddr: 0x100007098, symSize: 0x30 }
  - { offsetInCU: 0xE0A4, offset: 0xE0A4, size: 0x8, addend: 0x0, symName: __ZNSt3__110unique_ptrIP3CarNS_22__allocator_destructorINS_9allocatorIS1_EEEEE5resetB8ue170006ES2_, symObjAddr: 0x5FA4, symBinAddr: 0x1000070C8, symSize: 0x78 }
  - { offsetInCU: 0xE0E8, offset: 0xE0E8, size: 0x8, addend: 0x0, symName: __ZNSt3__117__compressed_pairIP3CarNS_22__allocator_destructorINS_9allocatorIS1_EEEEE6secondB8ue170006Ev, symObjAddr: 0x601C, symBinAddr: 0x100007140, symSize: 0x28 }
  - { offsetInCU: 0xE10E, offset: 0xE10E, size: 0x8, addend: 0x0, symName: __ZNSt3__122__allocator_destructorINS_9allocatorI3CarEEEclB8ue170006EPS2_, symObjAddr: 0x6044, symBinAddr: 0x100007168, symSize: 0x34 }
  - { offsetInCU: 0xE142, offset: 0xE142, size: 0x8, addend: 0x0, symName: __ZNSt3__122__compressed_pair_elemINS_22__allocator_destructorINS_9allocatorI3CarEEEELi1ELb0EE5__getB8ue170006Ev, symObjAddr: 0x6078, symBinAddr: 0x10000719C, symSize: 0x14 }
  - { offsetInCU: 0xE168, offset: 0xE168, size: 0x8, addend: 0x0, symName: __ZNSt3__114__split_bufferIP3CarRNS_9allocatorIS2_EEED2Ev, symObjAddr: 0x608C, symBinAddr: 0x1000071B0, symSize: 0x80 }
  - { offsetInCU: 0xE194, offset: 0xE194, size: 0x8, addend: 0x0, symName: __ZNSt3__114__split_bufferIP3CarRNS_9allocatorIS2_EEE5clearB8ue170006Ev, symObjAddr: 0x610C, symBinAddr: 0x100007230, symSize: 0x28 }
  - { offsetInCU: 0xE1BA, offset: 0xE1BA, size: 0x8, addend: 0x0, symName: __ZNKSt3__114__split_bufferIP3CarRNS_9allocatorIS2_EEE8capacityB8ue170006Ev, symObjAddr: 0x6134, symBinAddr: 0x100007258, symSize: 0x40 }
  - { offsetInCU: 0xE1E0, offset: 0xE1E0, size: 0x8, addend: 0x0, symName: __ZNSt3__114__split_bufferIP3CarRNS_9allocatorIS2_EEE17__destruct_at_endB8ue170006EPS2_, symObjAddr: 0x6174, symBinAddr: 0x100007298, symSize: 0x2C }
  - { offsetInCU: 0xE214, offset: 0xE214, size: 0x8, addend: 0x0, symName: __ZNSt3__114__split_bufferIP3CarRNS_9allocatorIS2_EEE17__destruct_at_endB8ue170006EPS2_NS_17integral_constantIbLb0EEE, symObjAddr: 0x61A0, symBinAddr: 0x1000072C4, symSize: 0x94 }
  - { offsetInCU: 0xE254, offset: 0xE254, size: 0x8, addend: 0x0, symName: __ZNKSt3__114__split_bufferIP3CarRNS_9allocatorIS2_EEE9__end_capB8ue170006Ev, symObjAddr: 0x6234, symBinAddr: 0x100007358, symSize: 0x28 }
  - { offsetInCU: 0xE27A, offset: 0xE27A, size: 0x8, addend: 0x0, symName: __ZNKSt3__117__compressed_pairIPP3CarRNS_9allocatorIS2_EEE5firstB8ue170006Ev, symObjAddr: 0x625C, symBinAddr: 0x100007380, symSize: 0x24 }
  - { offsetInCU: 0xE2A0, offset: 0xE2A0, size: 0x8, addend: 0x0, symName: __ZNSt3__19allocatorI3CarE9constructB8ue170006IS1_JRKS1_EEEvPT_DpOT0_, symObjAddr: 0x6280, symBinAddr: 0x1000073A4, symSize: 0x30 }
  - { offsetInCU: 0xE2F6, offset: 0xE2F6, size: 0x8, addend: 0x0, symName: __ZN3CarC1ERKS_, symObjAddr: 0x62B0, symBinAddr: 0x1000073D4, symSize: 0x34 }
  - { offsetInCU: 0xE32B, offset: 0xE32B, size: 0x8, addend: 0x0, symName: __ZN3CarC2ERKS_, symObjAddr: 0x62E4, symBinAddr: 0x100007408, symSize: 0x134 }
...
